#include <math.h>
#include <stdio.h>
#include <stdlib.h>
#include <string.h>

int qi(int num)
{
	int a,b;
	a=num/10;
	b=num-10*a;
	if(num%7==0)
		return 1;
		else if(a==7||b==7)
			return 1;
		else 
			return 0;
}
int main()
{
	int n;
	int sum=0;
	int i;
	scanf("%d",&n);
	for(i=1;i<=n;i++)
		if(qi(i)==0)
			sum=sum+i*i;
		printf("%d\n",sum);
return 0;
}
